target datalayout = "e-m:e-p270:32:32-p271:32:32-p272:64:64-i64:64-i128:128-f80:128-n8:16:32:64-S128"
target triple = "x86_64-pc-linux-gnu"

%struct.ieee802154_packet = type { i32, i32, i32, i32, i8, i8, i8, i8, i8, i8, i8, i8, i8, i8, i8, i8, i16, i16, i16, i64, i16, i64, i32, i32, i8, i32, i8, i64, %union.anon, i8, i8, ptr }
%union.anon = type { i64 }

; Function Attrs: nounwind null_pointer_is_valid sspstrong uwtable
define hidden i32 @zbee_get_bit_field(i32 noundef %0, i32 noundef %1) #0 {
  %3 = alloca i32, align 4
  %4 = alloca i32, align 4
  %5 = alloca i32, align 4
  store i32 %0, ptr %4, align 4
  store i32 %1, ptr %5, align 4
  %6 = load i32, ptr %5, align 4
  %7 = icmp eq i32 %6, 0
  br i1 %7, label %8, label %9

8:                                                ; preds = %2
  store i32 0, ptr %3, align 4
  br label %24

9:                                                ; preds = %2
  br label %10

10:                                               ; preds = %15, %9
  %11 = load i32, ptr %5, align 4
  %12 = and i32 %11, 1
  %13 = icmp ne i32 %12, 0
  %14 = xor i1 %13, true
  br i1 %14, label %15, label %20

15:                                               ; preds = %10
  %16 = load i32, ptr %4, align 4
  %17 = lshr i32 %16, 1
  store i32 %17, ptr %4, align 4
  %18 = load i32, ptr %5, align 4
  %19 = lshr i32 %18, 1
  store i32 %19, ptr %5, align 4
  br label %10, !llvm.loop !6

20:                                               ; preds = %10
  %21 = load i32, ptr %4, align 4
  %22 = load i32, ptr %5, align 4
  %23 = and i32 %21, %22
  store i32 %23, ptr %3, align 4
  br label %24

24:                                               ; preds = %20, %8
  %25 = load i32, ptr %3, align 4
  ret i32 %25
}

; Function Attrs: null_pointer_is_valid sspstrong uwtable
define internal zeroext i1 @dissect_zbee_nwk_heur(ptr noundef %0, ptr noundef %1, ptr noundef %2, ptr noundef %3) #1 {
  %5 = alloca i1, align 1
  %6 = alloca ptr, align 8
  %7 = alloca ptr, align 8
  %8 = alloca ptr, align 8
  %9 = alloca ptr, align 8
  %10 = alloca ptr, align 8
  %11 = alloca i16, align 2
  %12 = alloca i32, align 4
  %13 = alloca i32, align 4
  %14 = alloca i32, align 4
  store ptr %0, ptr %6, align 8
  store ptr %1, ptr %7, align 8
  store ptr %2, ptr %8, align 8
  store ptr %3, ptr %9, align 8
  call void @llvm.lifetime.start.p0(i64 8, ptr %10) #10
  %15 = load ptr, ptr %9, align 8
  store ptr %15, ptr %10, align 8
  call void @llvm.lifetime.start.p0(i64 2, ptr %11) #10
  call void @llvm.lifetime.start.p0(i64 4, ptr %12) #10
  call void @llvm.lifetime.start.p0(i64 4, ptr %13) #10
  %16 = load ptr, ptr %10, align 8
  %17 = icmp eq ptr %16, null
  br i1 %17, label %18, label %19

18:                                               ; preds = %4
  store i1 false, ptr %5, align 1
  store i32 1, ptr %14, align 4
  br label %68

19:                                               ; preds = %4
  %20 = load ptr, ptr %6, align 8
  %21 = call zeroext i16 @tvb_get_letohs(ptr noundef %20, i32 noundef 0)
  store i16 %21, ptr %11, align 2
  %22 = load i16, ptr %11, align 2
  %23 = zext i16 %22 to i32
  %24 = call i32 @zbee_get_bit_field(i32 noundef %23, i32 noundef 60)
  store i32 %24, ptr %12, align 4
  %25 = load i16, ptr %11, align 2
  %26 = zext i16 %25 to i32
  %27 = call i32 @zbee_get_bit_field(i32 noundef %26, i32 noundef 3)
  store i32 %27, ptr %13, align 4
  %28 = load i32, ptr %12, align 4
  %29 = icmp ult i32 %28, 1
  br i1 %29, label %33, label %30

30:                                               ; preds = %19
  %31 = load i32, ptr %12, align 4
  %32 = icmp ugt i32 %31, 2
  br i1 %32, label %33, label %34

33:                                               ; preds = %30, %19
  store i1 false, ptr %5, align 1
  store i32 1, ptr %14, align 4
  br label %68

34:                                               ; preds = %30
  %35 = load i32, ptr %13, align 4
  %36 = call ptr @try_val_to_str(i32 noundef %35, ptr noundef @zbee_nwk_frame_types)
  %37 = icmp ne ptr %36, null
  br i1 %37, label %39, label %38

38:                                               ; preds = %34
  store i1 false, ptr %5, align 1
  store i32 1, ptr %14, align 4
  br label %68

39:                                               ; preds = %34
  %40 = load i32, ptr %13, align 4
  %41 = icmp eq i32 %40, 3
  br i1 %41, label %42, label %49

42:                                               ; preds = %39
  %43 = load ptr, ptr %10, align 8
  %44 = getelementptr inbounds nuw %struct.ieee802154_packet, ptr %43, i32 0, i32 3
  %45 = load i32, ptr %44, align 4
  %46 = icmp ne i32 %45, 3
  br i1 %46, label %47, label %48

47:                                               ; preds = %42
  store i1 false, ptr %5, align 1
  store i32 1, ptr %14, align 4
  br label %68

48:                                               ; preds = %42
  br label %62

49:                                               ; preds = %39
  %50 = load ptr, ptr %10, align 8
  %51 = getelementptr inbounds nuw %struct.ieee802154_packet, ptr %50, i32 0, i32 3
  %52 = load i32, ptr %51, align 4
  %53 = icmp ne i32 %52, 2
  br i1 %53, label %54, label %55

54:                                               ; preds = %49
  store i1 false, ptr %5, align 1
  store i32 1, ptr %14, align 4
  br label %68

55:                                               ; preds = %49
  %56 = load ptr, ptr %10, align 8
  %57 = getelementptr inbounds nuw %struct.ieee802154_packet, ptr %56, i32 0, i32 2
  %58 = load i32, ptr %57, align 8
  %59 = icmp ne i32 %58, 2
  br i1 %59, label %60, label %61

60:                                               ; preds = %55
  store i1 false, ptr %5, align 1
  store i32 1, ptr %14, align 4
  br label %68

61:                                               ; preds = %55
  br label %62

62:                                               ; preds = %61, %48
  %63 = load ptr, ptr %6, align 8
  %64 = load ptr, ptr %7, align 8
  %65 = load ptr, ptr %8, align 8
  %66 = load ptr, ptr %10, align 8
  %67 = call i32 @dissect_zbee_nwk(ptr noundef %63, ptr noundef %64, ptr noundef %65, ptr noundef %66)
  store i1 true, ptr %5, align 1
  store i32 1, ptr %14, align 4
  br label %68

68:                                               ; preds = %62, %60, %54, %47, %38, %33, %18
  call void @llvm.lifetime.end.p0(i64 4, ptr %13) #10
  call void @llvm.lifetime.end.p0(i64 4, ptr %12) #10
  call void @llvm.lifetime.end.p0(i64 2, ptr %11) #10
  call void @llvm.lifetime.end.p0(i64 8, ptr %10) #10
  %69 = load i1, ptr %5, align 1
  ret i1 %69
}