; Function Attrs: null_pointer_is_valid sspstrong uwtable
define internal noundef zeroext i1 @dissect_zbee_nwk_heur(ptr noundef %0, ptr noundef %1, ptr noundef %2, ptr noundef captures(address_is_null) %3) #1 {
  %5 = icmp eq ptr %3, null
  br i1 %5, label %28, label %6

6:                                                ; preds = %4
  %7 = tail call zeroext i16 @tvb_get_letohs(ptr noundef %0, i32 noundef 0)
  %8 = zext i16 %7 to i32
  br label %.lr.ph.i

.lr.ph.i:                                         ; preds = %.lr.ph.i, %6
  %.012.i = phi i32 [ %10, %.lr.ph.i ], [ 60, %6 ]
  %.0711.i = phi i32 [ %9, %.lr.ph.i ], [ %8, %6 ]
  %9 = lshr i32 %.0711.i, 1
  %10 = lshr exact i32 %.012.i, 1
  %11 = and i32 %.012.i, 2
  %.not.i = icmp eq i32 %11, 0
  br i1 %.not.i, label %.lr.ph.i, label %zbee_get_bit_field.exit, !llvm.loop !6

zbee_get_bit_field.exit:                          ; preds = %.lr.ph.i
  %12 = and i32 %9, 15
  %13 = and i32 %8, 3
  %14 = add nsw i32 %12, -3
  %or.cond = icmp ult i32 %14, -2
  br i1 %or.cond, label %28, label %15

15:                                               ; preds = %zbee_get_bit_field.exit
  %16 = tail call ptr @try_val_to_str(i32 noundef %13, ptr noundef nonnull @zbee_nwk_frame_types)
  %.not = icmp eq ptr %16, null
  br i1 %.not, label %28, label %17

17:                                               ; preds = %15
  %18 = icmp eq i32 %13, 3
  %19 = getelementptr inbounds nuw i8, ptr %3, i64 12
  %20 = load i32, ptr %19, align 4
  br i1 %18, label %21, label %22

21:                                               ; preds = %17
  %.not20 = icmp eq i32 %20, 3
  br i1 %.not20, label %26, label %28

22:                                               ; preds = %17
  %.not18 = icmp eq i32 %20, 2
  br i1 %.not18, label %23, label %28

23:                                               ; preds = %22
  %24 = getelementptr inbounds nuw i8, ptr %3, i64 8
  %25 = load i32, ptr %24, align 8
  %.not19 = icmp eq i32 %25, 2
  br i1 %.not19, label %26, label %28

26:                                               ; preds = %23, %21
  %27 = tail call i32 @dissect_zbee_nwk(ptr noundef %0, ptr noundef %1, ptr noundef %2, ptr noundef nonnull %3)
  br label %28

28:                                               ; preds = %23, %22, %21, %15, %zbee_get_bit_field.exit, %4, %26
  %.0 = phi i1 [ true, %26 ], [ false, %4 ], [ false, %zbee_get_bit_field.exit ], [ false, %15 ], [ false, %21 ], [ false, %22 ], [ false, %23 ]
  ret i1 %.0
}